; Function Attrs: nounwind uwtable
define internal ptr @termios_tcflush(ptr noundef %0, ptr noundef readonly captures(none) %1, i64 noundef %2) #0 {
  %.not = icmp eq i64 %2, 2
  br i1 %.not, label %7, label %4

4:                                                ; preds = %3
  %5 = load ptr, ptr @PyExc_TypeError, align 8, !tbaa !9
  %6 = tail call ptr (ptr, ptr, ...) @PyErr_Format(ptr noundef %5, ptr noundef nonnull @.str.15, i64 noundef %2) #5
  br label %termios_tcflush_impl.exit

7:                                                ; preds = %3
  %8 = load ptr, ptr %1, align 8, !tbaa !9
  %9 = tail call i32 @PyObject_AsFileDescriptor(ptr noundef %8) #5
  %10 = icmp slt i32 %9, 0
  br i1 %10, label %termios_tcflush_impl.exit, label %11

11:                                               ; preds = %7
  %12 = getelementptr i8, ptr %1, i64 8
  %13 = load ptr, ptr %12, align 8, !tbaa !9
  %14 = tail call i32 @PyLong_AsInt(ptr noundef %13) #5
  %15 = icmp eq i32 %14, -1
  br i1 %15, label %25, label %.split

.split:                                           ; preds = %11
  %16 = tail call ptr @PyModule_GetState(ptr noundef %0) #5
  %17 = tail call ptr @PyEval_SaveThread() #5
  %18 = tail call i32 @tcflush(i32 noundef range(i32 0, -2147483648) %9, i32 noundef %14) #5
  tail call void @PyEval_RestoreThread(ptr noundef %17) #5
  %19 = icmp eq i32 %18, -1
  br i1 %19, label %20, label %23

20:                                               ; preds = %.split
  %21 = load ptr, ptr %16, align 8, !tbaa !3
  %22 = tail call ptr @PyErr_SetFromErrno(ptr noundef %21) #5
  br label %termios_tcflush_impl.exit

23:                                               ; preds = %.split
  %24 = tail call ptr @Py_GetConstantBorrowed(i32 noundef 0) #5
  br label %termios_tcflush_impl.exit

25:                                               ; preds = %11
  %26 = tail call ptr @PyErr_Occurred() #5
  %.not13 = icmp eq ptr %26, null
  br i1 %.not13, label %.split9, label %termios_tcflush_impl.exit

.split9:                                          ; preds = %25
  %27 = tail call ptr @PyModule_GetState(ptr noundef %0) #5
  %28 = tail call ptr @PyEval_SaveThread() #5
  %29 = tail call i32 @tcflush(i32 noundef range(i32 0, -2147483648) %9, i32 noundef -1) #5
  tail call void @PyEval_RestoreThread(ptr noundef %28) #5
  %30 = icmp eq i32 %29, -1
  br i1 %30, label %31, label %34

31:                                               ; preds = %.split9
  %32 = load ptr, ptr %27, align 8, !tbaa !3
  %33 = tail call ptr @PyErr_SetFromErrno(ptr noundef %32) #5
  br label %termios_tcflush_impl.exit

34:                                               ; preds = %.split9
  %35 = tail call ptr @Py_GetConstantBorrowed(i32 noundef 0) #5
  br label %termios_tcflush_impl.exit

termios_tcflush_impl.exit:                        ; preds = %34, %31, %23, %20, %25, %7, %4
  %.0 = phi ptr [ null, %4 ], [ null, %7 ], [ null, %25 ], [ %22, %20 ], [ %24, %23 ], [ %33, %31 ], [ %35, %34 ]
  ret ptr %.0
}